; ModuleID = '28/1935.c'
source_filename = "28/1935.c"
target datalayout = "e-m:e-p270:32:32-p271:32:32-p272:64:64-i64:64-f80:128-n8:16:32:64-S128"
target triple = "x86_64-pc-linux-gnu"

@.str = private unnamed_addr constant [4 x i8] c"%d,\00", align 1
@.str.1 = private unnamed_addr constant [3 x i8] c"%d\00", align 1

; Function Attrs: noinline nounwind uwtable
define dso_local i32 @main() #0 {
  %1 = alloca i32, align 4
  %2 = alloca i32, align 4
  %3 = alloca i32, align 4
  %4 = alloca i32, align 4
  %5 = alloca i32, align 4
  %6 = alloca i32, align 4
  %7 = alloca i32, align 4
  %8 = alloca [10000 x i8], align 16
  %9 = alloca [10000 x i8], align 16
  %10 = alloca [500 x [500 x i8]], align 16
  %11 = alloca [500 x i8], align 16
  store i32 0, i32* %1, align 4
  store i32 0, i32* %4, align 4
  store i32 0, i32* %6, align 4
  store i32 0, i32* %7, align 4
  %12 = bitcast [10000 x i8]* %9 to i8*
  call void @llvm.memset.p0i8.i64(i8* align 16 %12, i8 0, i64 10000, i1 false)
  %13 = bitcast i8* %12 to <{ i8, [9999 x i8] }>*
  %14 = getelementptr inbounds <{ i8, [9999 x i8] }>, <{ i8, [9999 x i8] }>* %13, i32 0, i32 0
  store i8 32, i8* %14, align 16
  %15 = bitcast [500 x [500 x i8]]* %10 to i8*
  call void @llvm.memset.p0i8.i64(i8* align 16 %15, i8 0, i64 250000, i1 false)
  %16 = bitcast i8* %15 to <{ <{ i8, [499 x i8] }>, [499 x <{ i8, [499 x i8] }>] }>*
  %17 = getelementptr inbounds <{ <{ i8, [499 x i8] }>, [499 x <{ i8, [499 x i8] }>] }>, <{ <{ i8, [499 x i8] }>, [499 x <{ i8, [499 x i8] }>] }>* %16, i32 0, i32 0
  %18 = getelementptr inbounds <{ i8, [499 x i8] }>, <{ i8, [499 x i8] }>* %17, i32 0, i32 0
  store i8 32, i8* %18, align 16
  %19 = bitcast [500 x i8]* %11 to i8*
  call void @llvm.memset.p0i8.i64(i8* align 16 %19, i8 0, i64 500, i1 false)
  %20 = getelementptr inbounds [10000 x i8], [10000 x i8]* %8, i64 0, i64 0
  %21 = call i32 (i8*, ...) bitcast (i32 (...)* @gets to i32 (i8*, ...)*)(i8* %20)
  %22 = getelementptr inbounds [10000 x i8], [10000 x i8]* %8, i64 0, i64 0
  %23 = call i64 @strlen(i8* %22) #4
  %24 = trunc i64 %23 to i32
  store i32 %24, i32* %5, align 4
  %25 = getelementptr inbounds [10000 x i8], [10000 x i8]* %8, i64 0, i64 0
  %26 = load i8, i8* %25, align 16
  %27 = load i32, i32* %6, align 4
  %28 = add nsw i32 %27, 1
  store i32 %28, i32* %6, align 4
  %29 = sext i32 %27 to i64
  %30 = getelementptr inbounds [10000 x i8], [10000 x i8]* %9, i64 0, i64 %29
  store i8 %26, i8* %30, align 1
  store i32 1, i32* %2, align 4
  br label %31

31:                                               ; preds = %67, %0
  %32 = load i32, i32* %2, align 4
  %33 = load i32, i32* %5, align 4
  %34 = icmp slt i32 %32, %33
  br i1 %34, label %35, label %70

35:                                               ; preds = %31
  %36 = load i32, i32* %2, align 4
  %37 = sext i32 %36 to i64
  %38 = getelementptr inbounds [10000 x i8], [10000 x i8]* %8, i64 0, i64 %37
  %39 = load i8, i8* %38, align 1
  %40 = sext i8 %39 to i32
  %41 = icmp eq i32 %40, 32
  br i1 %41, label %42, label %50

42:                                               ; preds = %35
  %43 = load i32, i32* %2, align 4
  %44 = sub nsw i32 %43, 1
  %45 = sext i32 %44 to i64
  %46 = getelementptr inbounds [10000 x i8], [10000 x i8]* %8, i64 0, i64 %45
  %47 = load i8, i8* %46, align 1
  %48 = sext i8 %47 to i32
  %49 = icmp ne i32 %48, 32
  br i1 %49, label %57, label %50

50:                                               ; preds = %42, %35
  %51 = load i32, i32* %2, align 4
  %52 = sext i32 %51 to i64
  %53 = getelementptr inbounds [10000 x i8], [10000 x i8]* %8, i64 0, i64 %52
  %54 = load i8, i8* %53, align 1
  %55 = sext i8 %54 to i32
  %56 = icmp ne i32 %55, 32
  br i1 %56, label %57, label %66

57:                                               ; preds = %50, %42
  %58 = load i32, i32* %2, align 4
  %59 = sext i32 %58 to i64
  %60 = getelementptr inbounds [10000 x i8], [10000 x i8]* %8, i64 0, i64 %59
  %61 = load i8, i8* %60, align 1
  %62 = load i32, i32* %6, align 4
  %63 = add nsw i32 %62, 1
  store i32 %63, i32* %6, align 4
  %64 = sext i32 %62 to i64
  %65 = getelementptr inbounds [10000 x i8], [10000 x i8]* %9, i64 0, i64 %64
  store i8 %61, i8* %65, align 1
  br label %66

66:                                               ; preds = %57, %50
  br label %67

67:                                               ; preds = %66
  %68 = load i32, i32* %2, align 4
  %69 = add nsw i32 %68, 1
  store i32 %69, i32* %2, align 4
  br label %31

70:                                               ; preds = %31
  %71 = getelementptr inbounds [10000 x i8], [10000 x i8]* %9, i64 0, i64 0
  %72 = load i8, i8* %71, align 16
  %73 = getelementptr inbounds [500 x [500 x i8]], [500 x [500 x i8]]* %10, i64 0, i64 0
  %74 = getelementptr inbounds [500 x i8], [500 x i8]* %73, i64 0, i64 0
  store i8 %72, i8* %74, align 16
  store i32 0, i32* %2, align 4
  br label %75

75:                                               ; preds = %110, %70
  %76 = load i32, i32* %2, align 4
  %77 = load i32, i32* %6, align 4
  %78 = icmp slt i32 %76, %77
  br i1 %78, label %79, label %113

79:                                               ; preds = %75
  %80 = load i32, i32* %2, align 4
  %81 = sext i32 %80 to i64
  %82 = getelementptr inbounds [10000 x i8], [10000 x i8]* %9, i64 0, i64 %81
  %83 = load i8, i8* %82, align 1
  %84 = sext i8 %83 to i32
  %85 = icmp ne i32 %84, 32
  br i1 %85, label %86, label %98

86:                                               ; preds = %79
  %87 = load i32, i32* %2, align 4
  %88 = sext i32 %87 to i64
  %89 = getelementptr inbounds [10000 x i8], [10000 x i8]* %9, i64 0, i64 %88
  %90 = load i8, i8* %89, align 1
  %91 = load i32, i32* %4, align 4
  %92 = sext i32 %91 to i64
  %93 = getelementptr inbounds [500 x [500 x i8]], [500 x [500 x i8]]* %10, i64 0, i64 %92
  %94 = load i32, i32* %7, align 4
  %95 = add nsw i32 %94, 1
  store i32 %95, i32* %7, align 4
  %96 = sext i32 %94 to i64
  %97 = getelementptr inbounds [500 x i8], [500 x i8]* %93, i64 0, i64 %96
  store i8 %90, i8* %97, align 1
  br label %109

98:                                               ; preds = %79
  %99 = load i32, i32* %2, align 4
  %100 = sext i32 %99 to i64
  %101 = getelementptr inbounds [10000 x i8], [10000 x i8]* %9, i64 0, i64 %100
  %102 = load i8, i8* %101, align 1
  %103 = sext i8 %102 to i32
  %104 = icmp eq i32 %103, 32
  br i1 %104, label %105, label %108

105:                                              ; preds = %98
  %106 = load i32, i32* %4, align 4
  %107 = add nsw i32 %106, 1
  store i32 %107, i32* %4, align 4
  store i32 0, i32* %7, align 4
  br label %108

108:                                              ; preds = %105, %98
  br label %109

109:                                              ; preds = %108, %86
  br label %110

110:                                              ; preds = %109
  %111 = load i32, i32* %2, align 4
  %112 = add nsw i32 %111, 1
  store i32 %112, i32* %2, align 4
  br label %75

113:                                              ; preds = %75
  store i32 0, i32* %2, align 4
  br label %114

114:                                              ; preds = %134, %113
  %115 = load i32, i32* %2, align 4
  %116 = load i32, i32* %4, align 4
  %117 = icmp slt i32 %115, %116
  br i1 %117, label %118, label %137

118:                                              ; preds = %114
  %119 = load i32, i32* %2, align 4
  %120 = sext i32 %119 to i64
  %121 = getelementptr inbounds [500 x [500 x i8]], [500 x [500 x i8]]* %10, i64 0, i64 %120
  %122 = getelementptr inbounds [500 x i8], [500 x i8]* %121, i64 0, i64 0
  %123 = call i64 @strlen(i8* %122) #4
  %124 = trunc i64 %123 to i8
  %125 = load i32, i32* %2, align 4
  %126 = sext i32 %125 to i64
  %127 = getelementptr inbounds [500 x i8], [500 x i8]* %11, i64 0, i64 %126
  store i8 %124, i8* %127, align 1
  %128 = load i32, i32* %2, align 4
  %129 = sext i32 %128 to i64
  %130 = getelementptr inbounds [500 x i8], [500 x i8]* %11, i64 0, i64 %129
  %131 = load i8, i8* %130, align 1
  %132 = sext i8 %131 to i32
  %133 = call i32 (i8*, ...) @printf(i8* getelementptr inbounds ([4 x i8], [4 x i8]* @.str, i64 0, i64 0), i32 %132)
  br label %134

134:                                              ; preds = %118
  %135 = load i32, i32* %2, align 4
  %136 = add nsw i32 %135, 1
  store i32 %136, i32* %2, align 4
  br label %114

137:                                              ; preds = %114
  %138 = load i32, i32* %4, align 4
  %139 = sext i32 %138 to i64
  %140 = getelementptr inbounds [500 x [500 x i8]], [500 x [500 x i8]]* %10, i64 0, i64 %139
  %141 = getelementptr inbounds [500 x i8], [500 x i8]* %140, i64 0, i64 0
  %142 = call i64 @strlen(i8* %141) #4
  %143 = call i32 (i8*, ...) @printf(i8* getelementptr inbounds ([3 x i8], [3 x i8]* @.str.1, i64 0, i64 0), i64 %142)
  %144 = call i32 (i8*, ...) @__isoc99_scanf(i8* getelementptr inbounds ([3 x i8], [3 x i8]* @.str.1, i64 0, i64 0), i32* %2)
  ret i32 0
}

; Function Attrs: argmemonly nounwind willreturn
declare void @llvm.memset.p0i8.i64(i8* nocapture writeonly, i8, i64, i1 immarg) #1

declare dso_local i32 @gets(...) #2

; Function Attrs: nounwind readonly
declare dso_local i64 @strlen(i8*) #3

declare dso_local i32 @printf(i8*, ...) #2

declare dso_local i32 @__isoc99_scanf(i8*, ...) #2


!llvm.module.flags = !{!0}
!llvm.ident = !{!1}

!0 = !{i32 1, !"wchar_size", i32 4}
!1 = !{!"clang version 10.0.0-4ubuntu1 "}
